target datalayout = "e-m:e-p270:32:32-p271:32:32-p272:64:64-i64:64-i128:128-f80:128-n8:16:32:64-S128"
target triple = "x86_64-pc-linux-gnu"

%"class.Ipopt::ReferencedObject.base" = type <{ ptr, i32 }>
%"class.Ipopt::SmartPtr" = type { ptr }
%"class.Ipopt::RegisteredOptions" = type { %"class.Ipopt::ReferencedObject.base", %"class.std::map", %"class.std::map.16", i32, %"class.Ipopt::SmartPtr" }
%"class.std::map" = type { %"class.std::_Rb_tree" }
%"class.std::_Rb_tree" = type { %"struct.std::_Rb_tree<std::__cxx11::basic_string<char>, std::pair<const std::__cxx11::basic_string<char>, Ipopt::SmartPtr<Ipopt::RegisteredOption>>, std::_Select1st<std::pair<const std::__cxx11::basic_string<char>, Ipopt::SmartPtr<Ipopt::RegisteredOption>>>, std::less<std::__cxx11::basic_string<char>>>::_Rb_tree_impl" }
%"struct.std::_Rb_tree<std::__cxx11::basic_string<char>, std::pair<const std::__cxx11::basic_string<char>, Ipopt::SmartPtr<Ipopt::RegisteredOption>>, std::_Select1st<std::pair<const std::__cxx11::basic_string<char>, Ipopt::SmartPtr<Ipopt::RegisteredOption>>>, std::less<std::__cxx11::basic_string<char>>>::_Rb_tree_impl" = type { [8 x i8], %"struct.std::_Rb_tree_header" }
%"struct.std::_Rb_tree_header" = type { %"struct.std::_Rb_tree_node_base", i64 }
%"struct.std::_Rb_tree_node_base" = type { i32, ptr, ptr, ptr }
%"class.std::map.16" = type { %"class.std::_Rb_tree.17" }
%"class.std::_Rb_tree.17" = type { %"struct.std::_Rb_tree<std::__cxx11::basic_string<char>, std::pair<const std::__cxx11::basic_string<char>, Ipopt::SmartPtr<Ipopt::RegisteredCategory>>, std::_Select1st<std::pair<const std::__cxx11::basic_string<char>, Ipopt::SmartPtr<Ipopt::RegisteredCategory>>>, std::less<std::__cxx11::basic_string<char>>>::_Rb_tree_impl" }
%"struct.std::_Rb_tree<std::__cxx11::basic_string<char>, std::pair<const std::__cxx11::basic_string<char>, Ipopt::SmartPtr<Ipopt::RegisteredCategory>>, std::_Select1st<std::pair<const std::__cxx11::basic_string<char>, Ipopt::SmartPtr<Ipopt::RegisteredCategory>>>, std::less<std::__cxx11::basic_string<char>>>::_Rb_tree_impl" = type { [8 x i8], %"struct.std::_Rb_tree_header" }
%"class.Ipopt::SmartPtr.21" = type { ptr }
%"class.Ipopt::ReferencedObject" = type <{ ptr, i32, [4 x i8] }>

; Function Attrs: inlinehint mustprogress nounwind uwtable
define linkonce_odr noundef i32 @_ZNK5Ipopt16ReferencedObject14ReferenceCountEv(ptr noundef nonnull align 8 dereferenceable(12) %0) #7 comdat align 2 {
  %2 = alloca ptr, align 8
  store ptr %0, ptr %2, align 8, !tbaa !200
  %3 = load ptr, ptr %2, align 8
  %4 = getelementptr inbounds nuw %"class.Ipopt::ReferencedObject", ptr %3, i32 0, i32 1
  %5 = load i32, ptr %4, align 8, !tbaa !202
  ret i32 %5
}

; Function Attrs: inlinehint mustprogress nounwind uwtable
define linkonce_odr void @_ZNK5Ipopt16ReferencedObject10ReleaseRefEPKNS_10ReferencerE(ptr noundef nonnull align 8 dereferenceable(12) %0, ptr noundef %1) #7 comdat align 2 {
  %3 = alloca ptr, align 8
  %4 = alloca ptr, align 8
  store ptr %0, ptr %3, align 8, !tbaa !200
  store ptr %1, ptr %4, align 8, !tbaa !221
  %5 = load ptr, ptr %3, align 8
  %6 = getelementptr inbounds nuw %"class.Ipopt::ReferencedObject", ptr %5, i32 0, i32 1
  %7 = load i32, ptr %6, align 8, !tbaa !202
  %8 = add nsw i32 %7, -1
  store i32 %8, ptr %6, align 8, !tbaa !202
  ret void
}

; Function Attrs: inlinehint mustprogress nounwind uwtable
define linkonce_odr void @_ZNK5Ipopt16ReferencedObject6AddRefEPKNS_10ReferencerE(ptr noundef nonnull align 8 dereferenceable(12) %0, ptr noundef %1) #7 comdat align 2 {
  %3 = alloca ptr, align 8
  %4 = alloca ptr, align 8
  store ptr %0, ptr %3, align 8, !tbaa !200
  store ptr %1, ptr %4, align 8, !tbaa !221
  %5 = load ptr, ptr %3, align 8
  %6 = getelementptr inbounds nuw %"class.Ipopt::ReferencedObject", ptr %5, i32 0, i32 1
  %7 = load i32, ptr %6, align 8, !tbaa !202
  %8 = add nsw i32 %7, 1
  store i32 %8, ptr %6, align 8, !tbaa !202
  ret void
}

; Function Attrs: mustprogress nounwind uwtable
define linkonce_odr void @_ZN5Ipopt8SmartPtrINS_16RegisteredOptionEE15ReleasePointer_Ev(ptr noundef nonnull align 8 dereferenceable(8) %0) #6 comdat align 2 {
  %2 = alloca ptr, align 8
  store ptr %0, ptr %2, align 8, !tbaa !105
  %3 = load ptr, ptr %2, align 8
  %4 = getelementptr inbounds nuw %"class.Ipopt::SmartPtr.21", ptr %3, i32 0, i32 0
  %5 = load ptr, ptr %4, align 8, !tbaa !113
  %6 = icmp ne ptr %5, null
  br i1 %6, label %7, label %25

7:                                                ; preds = %1
  %8 = getelementptr inbounds nuw %"class.Ipopt::SmartPtr.21", ptr %3, i32 0, i32 0
  %9 = load ptr, ptr %8, align 8, !tbaa !113
  call void @_ZNK5Ipopt16ReferencedObject10ReleaseRefEPKNS_10ReferencerE(ptr noundef nonnull align 8 dereferenceable(12) %9, ptr noundef %3)
  %10 = getelementptr inbounds nuw %"class.Ipopt::SmartPtr.21", ptr %3, i32 0, i32 0
  %11 = load ptr, ptr %10, align 8, !tbaa !113
  %12 = call noundef i32 @_ZNK5Ipopt16ReferencedObject14ReferenceCountEv(ptr noundef nonnull align 8 dereferenceable(12) %11)
  %13 = icmp eq i32 %12, 0
  br i1 %13, label %14, label %24

14:                                               ; preds = %7
  %15 = getelementptr inbounds nuw %"class.Ipopt::SmartPtr.21", ptr %3, i32 0, i32 0
  %16 = load ptr, ptr %15, align 8, !tbaa !113
  %17 = icmp eq ptr %16, null
  br i1 %17, label %22, label %18

18:                                               ; preds = %14
  %19 = load ptr, ptr %16, align 8, !tbaa !31
  %20 = getelementptr inbounds ptr, ptr %19, i64 1
  %21 = load ptr, ptr %20, align 8
  call void %21(ptr noundef nonnull align 8 dereferenceable(220) %16) #3
  br label %22

22:                                               ; preds = %18, %14
  %23 = getelementptr inbounds nuw %"class.Ipopt::SmartPtr.21", ptr %3, i32 0, i32 0
  store ptr null, ptr %23, align 8, !tbaa !113
  br label %24

24:                                               ; preds = %22, %7
  br label %25

25:                                               ; preds = %24, %1
  ret void
}

; Function Attrs: mustprogress uwtable
define linkonce_odr noundef nonnull align 8 dereferenceable(8) ptr @_ZN5Ipopt8SmartPtrINS_16RegisteredOptionEE14SetFromRawPtr_EPS1_(ptr noundef nonnull align 8 dereferenceable(8) %0, ptr noundef %1) #4 comdat align 2 {
  %3 = alloca ptr, align 8
  %4 = alloca ptr, align 8
  store ptr %0, ptr %3, align 8, !tbaa !105
  store ptr %1, ptr %4, align 8, !tbaa !3
  %5 = load ptr, ptr %3, align 8
  %6 = load ptr, ptr %4, align 8, !tbaa !3
  %7 = icmp ne ptr %6, null
  br i1 %7, label %8, label %10

8:                                                ; preds = %2
  %9 = load ptr, ptr %4, align 8, !tbaa !3
  call void @_ZNK5Ipopt16ReferencedObject6AddRefEPKNS_10ReferencerE(ptr noundef nonnull align 8 dereferenceable(12) %9, ptr noundef %5)
  br label %10

10:                                               ; preds = %8, %2
  call void @_ZN5Ipopt8SmartPtrINS_16RegisteredOptionEE15ReleasePointer_Ev(ptr noundef nonnull align 8 dereferenceable(8) %5)
  %11 = load ptr, ptr %4, align 8, !tbaa !3
  %12 = getelementptr inbounds nuw %"class.Ipopt::SmartPtr.21", ptr %5, i32 0, i32 0
  store ptr %11, ptr %12, align 8, !tbaa !113
  ret ptr %5
}

; Function Attrs: mustprogress nounwind uwtable
define linkonce_odr void @_ZN5Ipopt8SmartPtrINS_16RegisteredOptionEED2Ev(ptr noundef nonnull align 8 dereferenceable(8) %0) unnamed_addr #6 comdat align 2 {
  %2 = alloca ptr, align 8
  store ptr %0, ptr %2, align 8, !tbaa !105
  %3 = load ptr, ptr %2, align 8
  call void @_ZN5Ipopt8SmartPtrINS_16RegisteredOptionEE15ReleasePointer_Ev(ptr noundef nonnull align 8 dereferenceable(8) %3)
  ret void
}

; Function Attrs: mustprogress nounwind uwtable
define linkonce_odr noundef ptr @_ZNK5Ipopt8SmartPtrINS_16RegisteredOptionEEptEv(ptr noundef nonnull align 8 dereferenceable(8) %0) #6 comdat align 2 {
  %2 = alloca ptr, align 8
  store ptr %0, ptr %2, align 8, !tbaa !105
  %3 = load ptr, ptr %2, align 8
  %4 = getelementptr inbounds nuw %"class.Ipopt::SmartPtr.21", ptr %3, i32 0, i32 0
  %5 = load ptr, ptr %4, align 8, !tbaa !113
  ret ptr %5
}

; Function Attrs: mustprogress uwtable
define linkonce_odr void @_ZN5Ipopt8SmartPtrINS_16RegisteredOptionEEC2EPS1_(ptr noundef nonnull align 8 dereferenceable(8) %0, ptr noundef %1) unnamed_addr #4 comdat align 2 {
  %3 = alloca ptr, align 8
  %4 = alloca ptr, align 8
  store ptr %0, ptr %3, align 8, !tbaa !105
  store ptr %1, ptr %4, align 8, !tbaa !3
  %5 = load ptr, ptr %3, align 8
  %6 = getelementptr inbounds nuw %"class.Ipopt::SmartPtr.21", ptr %5, i32 0, i32 0
  store ptr null, ptr %6, align 8, !tbaa !113
  %7 = load ptr, ptr %4, align 8, !tbaa !3
  %8 = call noundef nonnull align 8 dereferenceable(8) ptr @_ZN5Ipopt8SmartPtrINS_16RegisteredOptionEE14SetFromRawPtr_EPS1_(ptr noundef nonnull align 8 dereferenceable(8) %5, ptr noundef %7)
  ret void
}

; Function Attrs: mustprogress uwtable
define void @_ZN5Ipopt17RegisteredOptions16AddIntegerOptionERKNSt7__cxx1112basic_stringIcSt11char_traitsIcESaIcEEES8_iS8_b(ptr noundef nonnull align 8 dereferenceable(128) %0, ptr noundef nonnull align 8 dereferenceable(32) %1, ptr noundef nonnull align 8 dereferenceable(32) %2, i32 noundef %3, ptr noundef nonnull align 8 dereferenceable(32) %4, i1 noundef zeroext %5) unnamed_addr #4 align 2 personality ptr @__gxx_personality_v0 {
  %7 = alloca ptr, align 8
  %8 = alloca ptr, align 8
  %9 = alloca ptr, align 8
  %10 = alloca i32, align 4
  %11 = alloca ptr, align 8
  %12 = alloca i8, align 1
  %13 = alloca %"class.Ipopt::SmartPtr.21", align 8
  %14 = alloca ptr, align 8
  %15 = alloca i32, align 4
  %16 = alloca i32, align 4
  store ptr %0, ptr %7, align 8, !tbaa !90
  store ptr %1, ptr %8, align 8, !tbaa !44
  store ptr %2, ptr %9, align 8, !tbaa !44
  store i32 %3, ptr %10, align 4, !tbaa !82
  store ptr %4, ptr %11, align 8, !tbaa !44
  %17 = zext i1 %5 to i8
  store i8 %17, ptr %12, align 1, !tbaa !63
  %18 = load ptr, ptr %7, align 8
  call void @llvm.lifetime.start.p0(i64 8, ptr %13) #3
  %19 = call noalias noundef nonnull ptr @_Znwm(i64 noundef 224) #20
  %20 = load ptr, ptr %8, align 8, !tbaa !44
  %21 = load ptr, ptr %9, align 8, !tbaa !44
  %22 = load ptr, ptr %11, align 8, !tbaa !44
  %23 = getelementptr inbounds nuw %"class.Ipopt::RegisteredOptions", ptr %18, i32 0, i32 4
  %24 = getelementptr inbounds nuw %"class.Ipopt::RegisteredOptions", ptr %18, i32 0, i32 3
  %25 = load i32, ptr %24, align 8, !tbaa !119
  %26 = add nsw i32 %25, 1
  store i32 %26, ptr %24, align 8, !tbaa !119
  %27 = load i8, ptr %12, align 1, !tbaa !63, !range !29, !noundef !30
  %28 = trunc i8 %27 to i1
  invoke void @_ZN5Ipopt16RegisteredOptionC2ERKNSt7__cxx1112basic_stringIcSt11char_traitsIcESaIcEEES8_S8_RKNS_8SmartPtrINS_18RegisteredCategoryEEEib(ptr noundef nonnull align 8 dereferenceable(220) %19, ptr noundef nonnull align 8 dereferenceable(32) %20, ptr noundef nonnull align 8 dereferenceable(32) %21, ptr noundef nonnull align 8 dereferenceable(32) %22, ptr noundef nonnull align 8 dereferenceable(8) %23, i32 noundef %25, i1 noundef zeroext %28)
          to label %29 unwind label %43

29:                                               ; preds = %6
  call void @_ZN5Ipopt8SmartPtrINS_16RegisteredOptionEEC2EPS1_(ptr noundef nonnull align 8 dereferenceable(8) %13, ptr noundef %19)
  %30 = invoke noundef ptr @_ZNK5Ipopt8SmartPtrINS_16RegisteredOptionEEptEv(ptr noundef nonnull align 8 dereferenceable(8) %13)
          to label %31 unwind label %47

31:                                               ; preds = %29
  call void @llvm.lifetime.start.p0(i64 4, ptr %16) #3
  store i32 1, ptr %16, align 4, !tbaa !132
  %32 = load ptr, ptr %30, align 8, !tbaa !31
  %33 = getelementptr inbounds ptr, ptr %32, i64 10
  %34 = load ptr, ptr %33, align 8
  invoke void %34(ptr noundef nonnull align 8 dereferenceable(220) %30, ptr noundef nonnull align 4 dereferenceable(4) %16)
          to label %35 unwind label %51

35:                                               ; preds = %31
  call void @llvm.lifetime.end.p0(i64 4, ptr %16) #3
  %36 = invoke noundef ptr @_ZNK5Ipopt8SmartPtrINS_16RegisteredOptionEEptEv(ptr noundef nonnull align 8 dereferenceable(8) %13)
          to label %37 unwind label %47

37:                                               ; preds = %35
  %38 = load ptr, ptr %36, align 8, !tbaa !31
  %39 = getelementptr inbounds ptr, ptr %38, i64 30
  %40 = load ptr, ptr %39, align 8
  invoke void %40(ptr noundef nonnull align 8 dereferenceable(220) %36, ptr noundef nonnull align 4 dereferenceable(4) %10)
          to label %41 unwind label %47

41:                                               ; preds = %37
  invoke void @_ZN5Ipopt17RegisteredOptions9AddOptionERKNS_8SmartPtrINS_16RegisteredOptionEEE(ptr noundef nonnull align 8 dereferenceable(128) %18, ptr noundef nonnull align 8 dereferenceable(8) %13)
          to label %42 unwind label %47

42:                                               ; preds = %41
  call void @_ZN5Ipopt8SmartPtrINS_16RegisteredOptionEED2Ev(ptr noundef nonnull align 8 dereferenceable(8) %13) #3
  call void @llvm.lifetime.end.p0(i64 8, ptr %13) #3
  ret void

43:                                               ; preds = %6
  %44 = landingpad { ptr, i32 }
          cleanup
  %45 = extractvalue { ptr, i32 } %44, 0
  store ptr %45, ptr %14, align 8
  %46 = extractvalue { ptr, i32 } %44, 1
  store i32 %46, ptr %15, align 4
  call void @_ZdlPvm(ptr noundef %19, i64 noundef 224) #21
  br label %56

47:                                               ; preds = %41, %37, %35, %29
  %48 = landingpad { ptr, i32 }
          cleanup
  %49 = extractvalue { ptr, i32 } %48, 0
  store ptr %49, ptr %14, align 8
  %50 = extractvalue { ptr, i32 } %48, 1
  store i32 %50, ptr %15, align 4
  br label %55

51:                                               ; preds = %31
  %52 = landingpad { ptr, i32 }
          cleanup
  %53 = extractvalue { ptr, i32 } %52, 0
  store ptr %53, ptr %14, align 8
  %54 = extractvalue { ptr, i32 } %52, 1
  store i32 %54, ptr %15, align 4
  call void @llvm.lifetime.end.p0(i64 4, ptr %16) #3
  br label %55

55:                                               ; preds = %51, %47
  call void @_ZN5Ipopt8SmartPtrINS_16RegisteredOptionEED2Ev(ptr noundef nonnull align 8 dereferenceable(8) %13) #3
  br label %56

56:                                               ; preds = %55, %43
  call void @llvm.lifetime.end.p0(i64 8, ptr %13) #3
  br label %57

57:                                               ; preds = %56
  %58 = load ptr, ptr %14, align 8
  %59 = load i32, ptr %15, align 4
  %60 = insertvalue { ptr, i32 } poison, ptr %58, 0
  %61 = insertvalue { ptr, i32 } %60, i32 %59, 1
  resume { ptr, i32 } %61
}