; Function Attrs: mustprogress uwtable
define void @_ZN5Ipopt17RegisteredOptions16AddIntegerOptionERKNSt7__cxx1112basic_stringIcSt11char_traitsIcESaIcEEES8_iS8_b(ptr noundef nonnull align 8 dereferenceable(128) %0, ptr noundef nonnull align 8 dereferenceable(32) %1, ptr noundef nonnull align 8 dereferenceable(32) %2, i32 noundef %3, ptr noundef nonnull align 8 dereferenceable(32) %4, i1 noundef zeroext %5) unnamed_addr #3 align 2 personality ptr @__gxx_personality_v0 {
  %7 = alloca i32, align 4
  %8 = alloca %"class.Ipopt::SmartPtr.21", align 8
  %9 = alloca i32, align 4
  store i32 %3, ptr %7, align 4, !tbaa !99
  call void @llvm.lifetime.start.p0(i64 8, ptr nonnull %8) #23
  %10 = tail call noalias noundef nonnull dereferenceable(224) ptr @_Znwm(i64 noundef 224) #27
  %11 = getelementptr inbounds nuw i8, ptr %0, i64 120
  %12 = getelementptr inbounds nuw i8, ptr %0, i64 112
  %13 = load i32, ptr %12, align 8, !tbaa !86
  %14 = add nsw i32 %13, 1
  store i32 %14, ptr %12, align 8, !tbaa !86
  invoke void @_ZN5Ipopt16RegisteredOptionC2ERKNSt7__cxx1112basic_stringIcSt11char_traitsIcESaIcEEES8_S8_RKNS_8SmartPtrINS_18RegisteredCategoryEEEib(ptr noundef nonnull align 8 dereferenceable(220) %10, ptr noundef nonnull align 8 dereferenceable(32) %1, ptr noundef nonnull align 8 dereferenceable(32) %2, ptr noundef nonnull align 8 dereferenceable(32) %4, ptr noundef nonnull align 8 dereferenceable(8) %11, i32 noundef %13, i1 noundef zeroext %5)
          to label %15 unwind label %35

15:                                               ; preds = %6
  %16 = getelementptr inbounds nuw i8, ptr %10, i64 8
  %17 = load i32, ptr %16, align 8, !tbaa !59
  %18 = add nsw i32 %17, 1
  store i32 %18, ptr %16, align 8, !tbaa !59
  store ptr %10, ptr %8, align 8, !tbaa !80
  call void @llvm.lifetime.start.p0(i64 4, ptr nonnull %9) #23
  store i32 1, ptr %9, align 4, !tbaa !96
  %19 = load ptr, ptr %10, align 8, !tbaa !32
  %20 = getelementptr inbounds nuw i8, ptr %19, i64 80
  %21 = load ptr, ptr %20, align 8
  invoke void %21(ptr noundef nonnull align 8 dereferenceable(220) %10, ptr noundef nonnull align 4 dereferenceable(4) %9)
          to label %22 unwind label %39

22:                                               ; preds = %15
  call void @llvm.lifetime.end.p0(i64 4, ptr nonnull %9) #23
  %23 = load ptr, ptr %10, align 8, !tbaa !32
  %24 = getelementptr inbounds nuw i8, ptr %23, i64 240
  %25 = load ptr, ptr %24, align 8
  invoke void %25(ptr noundef nonnull align 8 dereferenceable(220) %10, ptr noundef nonnull align 4 dereferenceable(4) %7)
          to label %26 unwind label %37

26:                                               ; preds = %22
  invoke void @_ZN5Ipopt17RegisteredOptions9AddOptionERKNS_8SmartPtrINS_16RegisteredOptionEEE(ptr noundef nonnull align 8 dereferenceable(128) %0, ptr noundef nonnull align 8 dereferenceable(8) %8)
          to label %27 unwind label %37

27:                                               ; preds = %26
  %28 = load i32, ptr %16, align 8, !tbaa !59
  %29 = add nsw i32 %28, -1
  store i32 %29, ptr %16, align 8, !tbaa !59
  %30 = icmp eq i32 %29, 0
  br i1 %30, label %31, label %_ZN5Ipopt8SmartPtrINS_16RegisteredOptionEED2Ev.exit

31:                                               ; preds = %27
  %32 = load ptr, ptr %10, align 8, !tbaa !32
  %33 = getelementptr inbounds nuw i8, ptr %32, i64 8
  %34 = load ptr, ptr %33, align 8
  call void %34(ptr noundef nonnull align 8 dereferenceable(220) %10) #23
  br label %_ZN5Ipopt8SmartPtrINS_16RegisteredOptionEED2Ev.exit

_ZN5Ipopt8SmartPtrINS_16RegisteredOptionEED2Ev.exit: ; preds = %27, %31
  call void @llvm.lifetime.end.p0(i64 8, ptr nonnull %8) #23
  ret void

35:                                               ; preds = %6
  %36 = landingpad { ptr, i32 }
          cleanup
  tail call void @_ZdlPvm(ptr noundef nonnull %10, i64 noundef 224) #24
  br label %_ZN5Ipopt8SmartPtrINS_16RegisteredOptionEED2Ev.exit11

37:                                               ; preds = %26, %22
  %38 = landingpad { ptr, i32 }
          cleanup
  br label %41

39:                                               ; preds = %15
  %40 = landingpad { ptr, i32 }
          cleanup
  call void @llvm.lifetime.end.p0(i64 4, ptr nonnull %9) #23
  br label %41

41:                                               ; preds = %37, %39
  %.pn = phi { ptr, i32 } [ %38, %37 ], [ %40, %39 ]
  %42 = load i32, ptr %16, align 8, !tbaa !59
  %43 = add nsw i32 %42, -1
  store i32 %43, ptr %16, align 8, !tbaa !59
  %44 = icmp eq i32 %43, 0
  br i1 %44, label %45, label %_ZN5Ipopt8SmartPtrINS_16RegisteredOptionEED2Ev.exit11

45:                                               ; preds = %41
  %46 = load ptr, ptr %10, align 8, !tbaa !32
  %47 = getelementptr inbounds nuw i8, ptr %46, i64 8
  %48 = load ptr, ptr %47, align 8
  call void %48(ptr noundef nonnull align 8 dereferenceable(220) %10) #23
  br label %_ZN5Ipopt8SmartPtrINS_16RegisteredOptionEED2Ev.exit11

_ZN5Ipopt8SmartPtrINS_16RegisteredOptionEED2Ev.exit11: ; preds = %45, %41, %35
  %.pn.pn = phi { ptr, i32 } [ %36, %35 ], [ %.pn, %41 ], [ %.pn, %45 ]
  call void @llvm.lifetime.end.p0(i64 8, ptr nonnull %8) #23
  resume { ptr, i32 } %.pn.pn
}